; ModuleID = '29/1027.c'
source_filename = "29/1027.c"
target datalayout = "e-m:e-p270:32:32-p271:32:32-p272:64:64-i64:64-f80:128-n8:16:32:64-S128"
target triple = "x86_64-pc-linux-gnu"

@.str = private unnamed_addr constant [3 x i8] c"%d\00", align 1
@.str.1 = private unnamed_addr constant [7 x i8] c"%.3lf\0A\00", align 1

; Function Attrs: noinline nounwind uwtable
define dso_local i32 @main() #0 {
  %1 = alloca i32, align 4
  %2 = alloca i32, align 4
  %3 = alloca i32, align 4
  %4 = alloca i32, align 4
  %5 = alloca i32, align 4
  %6 = alloca i8*, align 8
  %7 = alloca i64, align 8
  %8 = alloca i64, align 8
  %9 = alloca i64, align 8
  %10 = alloca double, align 8
  store i32 0, i32* %1, align 4
  %11 = call i32 (i8*, ...) @__isoc99_scanf(i8* getelementptr inbounds ([3 x i8], [3 x i8]* @.str, i64 0, i64 0), i32* %2)
  store i32 0, i32* %5, align 4
  br label %12

12:                                               ; preds = %97, %0
  %13 = load i32, i32* %5, align 4
  %14 = load i32, i32* %2, align 4
  %15 = icmp slt i32 %13, %14
  br i1 %15, label %16, label %100

16:                                               ; preds = %12
  %17 = call i32 (i8*, ...) @__isoc99_scanf(i8* getelementptr inbounds ([3 x i8], [3 x i8]* @.str, i64 0, i64 0), i32* %3)
  %18 = load i32, i32* %3, align 4
  %19 = zext i32 %18 to i64
  %20 = call i8* @llvm.stacksave()
  store i8* %20, i8** %6, align 8
  %21 = alloca i32, i64 %19, align 16
  store i64 %19, i64* %7, align 8
  %22 = load i32, i32* %3, align 4
  %23 = zext i32 %22 to i64
  %24 = alloca i32, i64 %23, align 16
  store i64 %23, i64* %8, align 8
  %25 = load i32, i32* %3, align 4
  %26 = zext i32 %25 to i64
  %27 = alloca double, i64 %26, align 16
  store i64 %26, i64* %9, align 8
  store double 0.000000e+00, double* %10, align 8
  store i32 0, i32* %4, align 4
  br label %28

28:                                               ; preds = %90, %16
  %29 = load i32, i32* %4, align 4
  %30 = load i32, i32* %3, align 4
  %31 = icmp slt i32 %29, %30
  br i1 %31, label %32, label %93

32:                                               ; preds = %28
  %33 = load i32, i32* %4, align 4
  %34 = icmp eq i32 %33, 0
  br i1 %34, label %35, label %45

35:                                               ; preds = %32
  %36 = load i32, i32* %4, align 4
  %37 = sext i32 %36 to i64
  %38 = getelementptr inbounds i32, i32* %21, i64 %37
  store i32 2, i32* %38, align 4
  %39 = load i32, i32* %4, align 4
  %40 = sext i32 %39 to i64
  %41 = getelementptr inbounds i32, i32* %24, i64 %40
  store i32 1, i32* %41, align 4
  %42 = load i32, i32* %4, align 4
  %43 = sext i32 %42 to i64
  %44 = getelementptr inbounds double, double* %27, i64 %43
  store double 2.000000e+00, double* %44, align 8
  br label %83

45:                                               ; preds = %32
  %46 = load i32, i32* %4, align 4
  %47 = sub nsw i32 %46, 1
  %48 = sext i32 %47 to i64
  %49 = getelementptr inbounds i32, i32* %21, i64 %48
  %50 = load i32, i32* %49, align 4
  %51 = load i32, i32* %4, align 4
  %52 = sub nsw i32 %51, 1
  %53 = sext i32 %52 to i64
  %54 = getelementptr inbounds i32, i32* %24, i64 %53
  %55 = load i32, i32* %54, align 4
  %56 = add nsw i32 %50, %55
  %57 = load i32, i32* %4, align 4
  %58 = sext i32 %57 to i64
  %59 = getelementptr inbounds i32, i32* %21, i64 %58
  store i32 %56, i32* %59, align 4
  %60 = load i32, i32* %4, align 4
  %61 = sub nsw i32 %60, 1
  %62 = sext i32 %61 to i64
  %63 = getelementptr inbounds i32, i32* %21, i64 %62
  %64 = load i32, i32* %63, align 4
  %65 = load i32, i32* %4, align 4
  %66 = sext i32 %65 to i64
  %67 = getelementptr inbounds i32, i32* %24, i64 %66
  store i32 %64, i32* %67, align 4
  %68 = load i32, i32* %4, align 4
  %69 = sext i32 %68 to i64
  %70 = getelementptr inbounds i32, i32* %21, i64 %69
  %71 = load i32, i32* %70, align 4
  %72 = sitofp i32 %71 to double
  %73 = fmul double 1.000000e+00, %72
  %74 = load i32, i32* %4, align 4
  %75 = sext i32 %74 to i64
  %76 = getelementptr inbounds i32, i32* %24, i64 %75
  %77 = load i32, i32* %76, align 4
  %78 = sitofp i32 %77 to double
  %79 = fdiv double %73, %78
  %80 = load i32, i32* %4, align 4
  %81 = sext i32 %80 to i64
  %82 = getelementptr inbounds double, double* %27, i64 %81
  store double %79, double* %82, align 8
  br label %83

83:                                               ; preds = %45, %35
  %84 = load i32, i32* %4, align 4
  %85 = sext i32 %84 to i64
  %86 = getelementptr inbounds double, double* %27, i64 %85
  %87 = load double, double* %86, align 8
  %88 = load double, double* %10, align 8
  %89 = fadd double %88, %87
  store double %89, double* %10, align 8
  br label %90

90:                                               ; preds = %83
  %91 = load i32, i32* %4, align 4
  %92 = add nsw i32 %91, 1
  store i32 %92, i32* %4, align 4
  br label %28

93:                                               ; preds = %28
  %94 = load double, double* %10, align 8
  %95 = call i32 (i8*, ...) @printf(i8* getelementptr inbounds ([7 x i8], [7 x i8]* @.str.1, i64 0, i64 0), double %94)
  %96 = load i8*, i8** %6, align 8
  call void @llvm.stackrestore(i8* %96)
  br label %97

97:                                               ; preds = %93
  %98 = load i32, i32* %5, align 4
  %99 = add nsw i32 %98, 1
  store i32 %99, i32* %5, align 4
  br label %12

100:                                              ; preds = %12
  %101 = load i32, i32* %1, align 4
  ret i32 %101
}

declare dso_local i32 @__isoc99_scanf(i8*, ...) #1

; Function Attrs: nounwind
declare i8* @llvm.stacksave() #2

declare dso_local i32 @printf(i8*, ...) #1

; Function Attrs: nounwind
declare void @llvm.stackrestore(i8*) #2


!llvm.module.flags = !{!0}
!llvm.ident = !{!1}

!0 = !{i32 1, !"wchar_size", i32 4}
!1 = !{!"clang version 10.0.0-4ubuntu1 "}
